target datalayout = "e-m:e-p270:32:32-p271:32:32-p272:64:64-i64:64-i128:128-f80:128-n8:16:32:64-S128"
target triple = "x86_64-pc-linux-gnu"

%struct.Aig_Obj_t_ = type { %union.anon, ptr, ptr, i64, i32, i32, %union.anon.0 }
%union.anon = type { ptr }
%union.anon.0 = type { ptr }
%struct.Aig_Man_t_ = type { ptr, ptr, ptr, ptr, ptr, ptr, ptr, %struct.Aig_Obj_t_, i32, i32, i32, i32, i32, i32, [7 x i32], i32, ptr, i32, ptr, i32, ptr, i32, i32, i32, ptr, i32, i32, i32, i32, i32, ptr, ptr, i32, ptr, ptr, i32, ptr, ptr, i32, i32, i32, ptr, ptr, ptr, ptr, ptr, ptr, ptr, ptr, ptr, ptr, ptr, ptr, ptr, ptr, i32, ptr, ptr, ptr, ptr, i32, i64, i64, i64, ptr, ptr }
%struct.Ssw_Pars_t_ = type { i32, i32, i32, i32, i32, i32, i32, i32, i32, i32, i32, i32, i32, i32, i32, i32, i32, i32, i32, i32, i32, i32, i32, i32, i32, i32, i32, i32, i32, i32, i32, i32, i32, i32, i32, i32, i32, i32, i32, i32, i32, i32, ptr, ptr }
%struct.timespec = type { i64, i64 }

@.str.6 = private unnamed_addr constant [27 x i8] c"Verification successful.  \00", align 1
@.str.7 = private unnamed_addr constant [46 x i8] c"Verification failed with a counter-example.  \00", align 1
@.str.8 = private unnamed_addr constant [74 x i8] c"Verification UNDECIDED. The number of remaining regs = %d (total = %d).  \00", align 1
@.str.9 = private unnamed_addr constant [5 x i8] c"%s =\00", align 1
@.str.10 = private unnamed_addr constant [5 x i8] c"Time\00", align 1
@.str.11 = private unnamed_addr constant [11 x i8] c"%9.2f sec\0A\00", align 1

; Function Attrs: inlinehint nounwind uwtable
define internal i32 @Aig_ManRegNum(ptr noundef %0) #1 {
  %2 = alloca ptr, align 8
  store ptr %0, ptr %2, align 8, !tbaa !20
  %3 = load ptr, ptr %2, align 8, !tbaa !20
  %4 = getelementptr inbounds nuw %struct.Aig_Man_t_, ptr %3, i32 0, i32 8
  %5 = load i32, ptr %4, align 8, !tbaa !46
  ret i32 %5
}

; Function Attrs: inlinehint nounwind uwtable
define internal i64 @Abc_Clock() #1 {
  %1 = alloca i64, align 8
  %2 = alloca %struct.timespec, align 8
  %3 = alloca i32, align 4
  %4 = alloca i64, align 8
  call void @llvm.lifetime.start.p0(i64 16, ptr %2) #9
  %5 = call i32 @clock_gettime(i32 noundef 1, ptr noundef %2) #9
  %6 = icmp slt i32 %5, 0
  br i1 %6, label %7, label %8

7:                                                ; preds = %0
  store i64 -1, ptr %1, align 8
  store i32 1, ptr %3, align 4
  br label %19

8:                                                ; preds = %0
  call void @llvm.lifetime.start.p0(i64 8, ptr %4) #9
  %9 = getelementptr inbounds nuw %struct.timespec, ptr %2, i32 0, i32 0
  %10 = load i64, ptr %9, align 8, !tbaa !95
  %11 = mul nsw i64 %10, 1000000
  store i64 %11, ptr %4, align 8, !tbaa !90
  %12 = getelementptr inbounds nuw %struct.timespec, ptr %2, i32 0, i32 1
  %13 = load i64, ptr %12, align 8, !tbaa !97
  %14 = mul nsw i64 %13, 1000000
  %15 = sdiv i64 %14, 1000000000
  %16 = load i64, ptr %4, align 8, !tbaa !90
  %17 = add nsw i64 %16, %15
  store i64 %17, ptr %4, align 8, !tbaa !90
  %18 = load i64, ptr %4, align 8, !tbaa !90
  store i64 %18, ptr %1, align 8
  store i32 1, ptr %3, align 4
  call void @llvm.lifetime.end.p0(i64 8, ptr %4) #9
  br label %19

19:                                               ; preds = %8, %7
  call void @llvm.lifetime.end.p0(i64 16, ptr %2) #9
  %20 = load i64, ptr %1, align 8
  ret i64 %20
}

; Function Attrs: nounwind uwtable
define i32 @Ssw_SecWithSimilarityPairs(ptr noundef %0, ptr noundef %1, ptr noundef %2, ptr noundef %3) #0 {
  %5 = alloca ptr, align 8
  %6 = alloca ptr, align 8
  %7 = alloca ptr, align 8
  %8 = alloca ptr, align 8
  %9 = alloca %struct.Ssw_Pars_t_, align 8
  %10 = alloca ptr, align 8
  %11 = alloca i32, align 4
  %12 = alloca i64, align 8
  store ptr %0, ptr %5, align 8, !tbaa !20
  store ptr %1, ptr %6, align 8, !tbaa !20
  store ptr %2, ptr %7, align 8, !tbaa !3
  store ptr %3, ptr %8, align 8, !tbaa !68
  call void @llvm.lifetime.start.p0(i64 184, ptr %9) #9
  call void @llvm.lifetime.start.p0(i64 8, ptr %10) #9
  call void @llvm.lifetime.start.p0(i64 4, ptr %11) #9
  call void @llvm.lifetime.start.p0(i64 8, ptr %12) #9
  %13 = call i64 @Abc_Clock()
  store i64 %13, ptr %12, align 8, !tbaa !90
  %14 = load ptr, ptr %8, align 8, !tbaa !68
  %15 = icmp eq ptr %14, null
  br i1 %15, label %16, label %17

16:                                               ; preds = %4
  store ptr %9, ptr %8, align 8, !tbaa !68
  call void @Ssw_ManSetDefaultParams(ptr noundef %9)
  br label %17

17:                                               ; preds = %16, %4
  %18 = load ptr, ptr %5, align 8, !tbaa !20
  %19 = load ptr, ptr %6, align 8, !tbaa !20
  %20 = load ptr, ptr %7, align 8, !tbaa !3
  %21 = load ptr, ptr %8, align 8, !tbaa !68
  %22 = call ptr @Ssw_SecWithSimilaritySweep(ptr noundef %18, ptr noundef %19, ptr noundef %20, ptr noundef %21)
  store ptr %22, ptr %10, align 8, !tbaa !20
  %23 = load ptr, ptr %10, align 8, !tbaa !20
  %24 = call i32 @Ssw_MiterStatus(ptr noundef %23, i32 noundef 1)
  store i32 %24, ptr %11, align 4, !tbaa !14
  %25 = load i32, ptr %11, align 4, !tbaa !14
  %26 = icmp eq i32 %25, 1
  br i1 %26, label %27, label %28

27:                                               ; preds = %17
  call void (i32, ptr, ...) @Abc_Print(i32 noundef 1, ptr noundef @.str.6)
  br label %41

28:                                               ; preds = %17
  %29 = load i32, ptr %11, align 4, !tbaa !14
  %30 = icmp eq i32 %29, 0
  br i1 %30, label %31, label %32

31:                                               ; preds = %28
  call void (i32, ptr, ...) @Abc_Print(i32 noundef 1, ptr noundef @.str.7)
  br label %40

32:                                               ; preds = %28
  %33 = load ptr, ptr %10, align 8, !tbaa !20
  %34 = call i32 @Aig_ManRegNum(ptr noundef %33)
  %35 = load ptr, ptr %5, align 8, !tbaa !20
  %36 = call i32 @Aig_ManRegNum(ptr noundef %35)
  %37 = load ptr, ptr %6, align 8, !tbaa !20
  %38 = call i32 @Aig_ManRegNum(ptr noundef %37)
  %39 = add nsw i32 %36, %38
  call void (i32, ptr, ...) @Abc_Print(i32 noundef 1, ptr noundef @.str.8, i32 noundef %34, i32 noundef %39)
  br label %40

40:                                               ; preds = %32, %31
  br label %41

41:                                               ; preds = %40, %27
  call void (i32, ptr, ...) @Abc_Print(i32 noundef 1, ptr noundef @.str.9, ptr noundef @.str.10)
  %42 = call i64 @Abc_Clock()
  %43 = load i64, ptr %12, align 8, !tbaa !90
  %44 = sub nsw i64 %42, %43
  %45 = sitofp i64 %44 to double
  %46 = fmul double 1.000000e+00, %45
  %47 = fdiv double %46, 1.000000e+06
  call void (i32, ptr, ...) @Abc_Print(i32 noundef 1, ptr noundef @.str.11, double noundef %47)
  %48 = load ptr, ptr %10, align 8, !tbaa !20
  call void @Aig_ManStop(ptr noundef %48)
  %49 = load i32, ptr %11, align 4, !tbaa !14
  call void @llvm.lifetime.end.p0(i64 8, ptr %12) #9
  call void @llvm.lifetime.end.p0(i64 4, ptr %11) #9
  call void @llvm.lifetime.end.p0(i64 8, ptr %10) #9
  call void @llvm.lifetime.end.p0(i64 184, ptr %9) #9
  ret i32 %49
}