; Function Attrs: nounwind uwtable
define noundef i32 @Ssw_SecWithSimilarityPairs(ptr noundef %0, ptr noundef %1, ptr noundef readonly captures(none) %2, ptr noundef %3) local_unnamed_addr #1 {
  %5 = alloca %struct.timespec, align 8
  %6 = alloca %struct.timespec, align 8
  %7 = alloca %struct.Ssw_Pars_t_, align 8
  call void @llvm.lifetime.start.p0(i64 184, ptr nonnull %7) #15
  call void @llvm.lifetime.start.p0(i64 16, ptr nonnull %6) #15
  %8 = call i32 @clock_gettime(i32 noundef 1, ptr noundef nonnull %6) #15
  %9 = icmp slt i32 %8, 0
  br i1 %9, label %Abc_Clock.exit, label %10

10:                                               ; preds = %4
  %11 = load i64, ptr %6, align 8, !tbaa !84
  %.neg19 = mul i64 %11, -1000000
  %12 = getelementptr inbounds nuw i8, ptr %6, i64 8
  %13 = load i64, ptr %12, align 8, !tbaa !86
  %.neg = sdiv i64 %13, -1000
  %.neg20 = add i64 %.neg, %.neg19
  br label %Abc_Clock.exit

Abc_Clock.exit:                                   ; preds = %4, %10
  %.0.i.neg = phi i64 [ %.neg20, %10 ], [ 1, %4 ]
  call void @llvm.lifetime.end.p0(i64 16, ptr nonnull %6) #15
  %14 = icmp eq ptr %3, null
  br i1 %14, label %15, label %16

15:                                               ; preds = %Abc_Clock.exit
  call void @Ssw_ManSetDefaultParams(ptr noundef nonnull %7) #15
  br label %16

16:                                               ; preds = %15, %Abc_Clock.exit
  %.0 = phi ptr [ %7, %15 ], [ %3, %Abc_Clock.exit ]
  %17 = call ptr @Ssw_SecWithSimilaritySweep(ptr noundef %0, ptr noundef %1, ptr noundef %2, ptr noundef nonnull %.0)
  %18 = call i32 @Ssw_MiterStatus(ptr noundef %17, i32 noundef 1) #15
  switch i32 %18, label %21 [
    i32 1, label %19
    i32 0, label %20
  ]

19:                                               ; preds = %16
  call void (i32, ptr, ...) @Abc_Print(i32 poison, ptr noundef nonnull @.str.6)
  br label %26

20:                                               ; preds = %16
  call void (i32, ptr, ...) @Abc_Print(i32 poison, ptr noundef nonnull @.str.7)
  br label %26

21:                                               ; preds = %16
  %22 = getelementptr i8, ptr %17, i64 104
  %.val16 = load i32, ptr %22, align 8, !tbaa !17
  %23 = getelementptr i8, ptr %0, i64 104
  %.val15 = load i32, ptr %23, align 8, !tbaa !17
  %24 = getelementptr i8, ptr %1, i64 104
  %.val = load i32, ptr %24, align 8, !tbaa !17
  %25 = add nsw i32 %.val, %.val15
  call void (i32, ptr, ...) @Abc_Print(i32 poison, ptr noundef nonnull @.str.8, i32 noundef %.val16, i32 noundef %25)
  br label %26

26:                                               ; preds = %20, %21, %19
  call void (i32, ptr, ...) @Abc_Print(i32 poison, ptr noundef nonnull @.str.9, ptr noundef nonnull @.str.10)
  call void @llvm.lifetime.start.p0(i64 16, ptr nonnull %5) #15
  %27 = call i32 @clock_gettime(i32 noundef 1, ptr noundef nonnull %5) #15
  %28 = icmp slt i32 %27, 0
  br i1 %28, label %Abc_Clock.exit18, label %29

29:                                               ; preds = %26
  %30 = load i64, ptr %5, align 8, !tbaa !84
  %31 = mul nsw i64 %30, 1000000
  %32 = getelementptr inbounds nuw i8, ptr %5, i64 8
  %33 = load i64, ptr %32, align 8, !tbaa !86
  %34 = sdiv i64 %33, 1000
  %35 = add nsw i64 %34, %31
  br label %Abc_Clock.exit18

Abc_Clock.exit18:                                 ; preds = %26, %29
  %.0.i17 = phi i64 [ %35, %29 ], [ -1, %26 ]
  call void @llvm.lifetime.end.p0(i64 16, ptr nonnull %5) #15
  %36 = add i64 %.0.i17, %.0.i.neg
  %37 = sitofp i64 %36 to double
  %38 = fdiv double %37, 1.000000e+06
  call void (i32, ptr, ...) @Abc_Print(i32 poison, ptr noundef nonnull @.str.11, double noundef %38)
  call void @Aig_ManStop(ptr noundef %17) #15
  call void @llvm.lifetime.end.p0(i64 184, ptr nonnull %7) #15
  ret i32 %18
}